; Function Attrs: nounwind uwtable
define i32 @cvSensRhsWrapper(ptr noundef captures(none) %0, double noundef %1, ptr noundef %2, ptr noundef %3, ptr noundef %4, ptr noundef %5, ptr noundef %6, ptr noundef %7) local_unnamed_addr #0 {
  %9 = getelementptr inbounds nuw i8, ptr %0, i64 180
  %10 = load i32, ptr %9, align 4, !tbaa !46
  %11 = icmp eq i32 %10, 2
  br i1 %11, label %18, label %.preheader

.preheader:                                       ; preds = %8
  %12 = getelementptr inbounds nuw i8, ptr %0, i64 160
  %13 = getelementptr inbounds nuw i8, ptr %0, i64 144
  %14 = load i32, ptr %13, align 8, !tbaa !156
  %15 = icmp sgt i32 %14, 0
  br i1 %15, label %.lr.ph, label %.loopexit

.lr.ph:                                           ; preds = %.preheader
  %16 = getelementptr inbounds nuw i8, ptr %0, i64 168
  %17 = getelementptr inbounds nuw i8, ptr %0, i64 1600
  br label %33

18:                                               ; preds = %8
  %19 = getelementptr inbounds nuw i8, ptr %0, i64 152
  %20 = load ptr, ptr %19, align 8, !tbaa !43
  %21 = getelementptr inbounds nuw i8, ptr %0, i64 144
  %22 = load i32, ptr %21, align 8, !tbaa !156
  %23 = getelementptr inbounds nuw i8, ptr %0, i64 168
  %24 = load ptr, ptr %23, align 8, !tbaa !158
  %25 = tail call i32 %20(i32 noundef %22, double noundef %1, ptr noundef %2, ptr noundef %3, ptr noundef %4, ptr noundef %5, ptr noundef %24, ptr noundef %6, ptr noundef %7) #13
  %26 = getelementptr inbounds nuw i8, ptr %0, i64 1600
  %27 = load i64, ptr %26, align 8, !tbaa !284
  %28 = add nsw i64 %27, 1
  store i64 %28, ptr %26, align 8, !tbaa !284
  br label %.loopexit

29:                                               ; preds = %33
  %indvars.iv.next = add nuw nsw i64 %indvars.iv, 1
  %30 = load i32, ptr %13, align 8, !tbaa !156
  %31 = sext i32 %30 to i64
  %32 = icmp slt i64 %indvars.iv.next, %31
  br i1 %32, label %33, label %.loopexit

33:                                               ; preds = %.lr.ph, %29
  %indvars.iv = phi i64 [ 0, %.lr.ph ], [ %indvars.iv.next, %29 ]
  %34 = phi i32 [ %14, %.lr.ph ], [ %30, %29 ]
  %35 = load ptr, ptr %12, align 8, !tbaa !44
  %36 = getelementptr inbounds nuw ptr, ptr %4, i64 %indvars.iv
  %37 = load ptr, ptr %36, align 8, !tbaa !65
  %38 = getelementptr inbounds nuw ptr, ptr %5, i64 %indvars.iv
  %39 = load ptr, ptr %38, align 8, !tbaa !65
  %40 = load ptr, ptr %16, align 8, !tbaa !158
  %41 = trunc nuw nsw i64 %indvars.iv to i32
  %42 = tail call i32 %35(i32 noundef %34, double noundef %1, ptr noundef %2, ptr noundef %3, i32 noundef %41, ptr noundef %37, ptr noundef %39, ptr noundef %40, ptr noundef %6, ptr noundef %7) #13
  %43 = load i64, ptr %17, align 8, !tbaa !284
  %44 = add nsw i64 %43, 1
  store i64 %44, ptr %17, align 8, !tbaa !284
  %.not = icmp eq i32 %42, 0
  br i1 %.not, label %29, label %.loopexit

.loopexit:                                        ; preds = %33, %29, %.preheader, %18
  %.030 = phi i32 [ %25, %18 ], [ 0, %.preheader ], [ %42, %33 ], [ 0, %29 ]
  ret i32 %.030
}